; Function Attrs: nounwind uwtable
define hidden range(i32 0, 2) i32 @_cmsWrite15Fixed16Number(ptr noundef %0, double noundef %1) local_unnamed_addr #2 {
  %3 = alloca i32, align 4
  %4 = tail call double @llvm.fmuladd.f64(double %1, double 6.553600e+04, double 5.000000e-01)
  %5 = tail call double @llvm.floor.f64(double %4)
  %6 = fptosi double %5 to i32
  %.sroa.0.0.insert.insert.i = tail call noundef i32 @llvm.bswap.i32(i32 %6)
  store i32 %.sroa.0.0.insert.insert.i, ptr %3, align 4
  %7 = getelementptr inbounds i8, ptr %0, i64 312
  %8 = load ptr, ptr %7, align 8
  %9 = call i32 %8(ptr noundef %0, i32 noundef 4, ptr noundef nonnull %3) #12
  %.not = icmp eq i32 %9, 1
  %. = zext i1 %.not to i32
  ret i32 %.
}